target datalayout = "e-m:e-p270:32:32-p271:32:32-p272:64:64-i64:64-i128:128-f80:128-n8:16:32:64-S128"
target triple = "x86_64-pc-linux-gnu"

%class.CellTypeState = type { i32 }
%class.methodHandle = type { ptr, ptr }
%class.RetTable = type { ptr }
%class.GenerateOopMap = type { ptr, %class.methodHandle, %class.RetTable, i32, i32, i32, i32, i8, %class.Handle, i8, i8, i8, i32, ptr, ptr, i32, i32, ptr, i32, i32, %class.ResourceBitMap, i8, i8, ptr, ptr, i8, i32, ptr, ptr }
%class.Handle = type { ptr }
%class.ResourceBitMap = type { %class.GrowableBitMap }
%class.GrowableBitMap = type { %class.BitMap }
%class.BitMap = type { ptr, i64 }

@.str.30 = private unnamed_addr constant [26 x i8] c"variable write error: r%d\00", align 1
@.str.78 = private unnamed_addr constant [62 x i8] c"Illegal class file encountered. Try running with -Xverify:all\00", align 1

; Function Attrs: mustprogress nounwind uwtable
define linkonce_odr hidden noundef ptr @_ZN14GenerateOopMap4varsEv(ptr noundef nonnull align 8 dereferenceable(176) %0) #1 comdat align 2 {
  %2 = alloca ptr, align 8
  store ptr %0, ptr %2, align 8
  %3 = load ptr, ptr %2, align 8
  %4 = getelementptr inbounds %class.GenerateOopMap, ptr %3, i32 0, i32 13
  %5 = load ptr, ptr %4, align 8
  ret ptr %5
}

; Function Attrs: mustprogress nounwind uwtable
define hidden void @_ZN14GenerateOopMap12verify_errorEPKcz(ptr noundef nonnull align 8 dereferenceable(176) %0, ptr noundef %1, ...) #1 align 2 {
  %3 = alloca ptr, align 8
  %4 = alloca ptr, align 8
  store ptr %0, ptr %3, align 8
  store ptr %1, ptr %4, align 8
  %5 = load ptr, ptr %3, align 8
  call void (ptr, ptr, ...) @_ZN14GenerateOopMap12report_errorEPKcz(ptr noundef nonnull align 8 dereferenceable(176) %5, ptr noundef @.str.78)
  ret void
}

; Function Attrs: mustprogress nounwind uwtable
define hidden void @_ZN14GenerateOopMap7set_varEi13CellTypeState(ptr noundef nonnull align 8 dereferenceable(176) %0, i32 noundef %1, i32 %2) #1 align 2 {
  %4 = alloca %class.CellTypeState, align 4
  %5 = alloca ptr, align 8
  %6 = alloca i32, align 4
  %7 = getelementptr inbounds %class.CellTypeState, ptr %4, i32 0, i32 0
  store i32 %2, ptr %7, align 4
  store ptr %0, ptr %5, align 8
  store i32 %1, ptr %6, align 4
  %8 = load ptr, ptr %5, align 8
  %9 = load i32, ptr %6, align 4
  %10 = icmp slt i32 %9, 0
  br i1 %10, label %16, label %11

11:                                               ; preds = %3
  %12 = load i32, ptr %6, align 4
  %13 = getelementptr inbounds %class.GenerateOopMap, ptr %8, i32 0, i32 3
  %14 = load i32, ptr %13, align 8
  %15 = icmp sgt i32 %12, %14
  br i1 %15, label %16, label %18

16:                                               ; preds = %11, %3
  %17 = load i32, ptr %6, align 4
  call void (ptr, ptr, ...) @_ZN14GenerateOopMap12verify_errorEPKcz(ptr noundef nonnull align 8 dereferenceable(176) %8, ptr noundef @.str.30, i32 noundef %17)
  br label %23

18:                                               ; preds = %11
  %19 = call noundef ptr @_ZN14GenerateOopMap4varsEv(ptr noundef nonnull align 8 dereferenceable(176) %8)
  %20 = load i32, ptr %6, align 4
  %21 = sext i32 %20 to i64
  %22 = getelementptr inbounds %class.CellTypeState, ptr %19, i64 %21
  call void @llvm.memcpy.p0.p0.i64(ptr align 4 %22, ptr align 4 %4, i64 4, i1 false)
  br label %23

23:                                               ; preds = %18, %16
  ret void
}