; Function Attrs: mustprogress nounwind uwtable
define hidden void @_ZN14GenerateOopMap7set_varEi13CellTypeState(ptr nocapture noundef nonnull align 8 dereferenceable(176) %0, i32 noundef %1, i32 %2) local_unnamed_addr #0 align 2 {
  %4 = icmp slt i32 %1, 0
  %5 = getelementptr inbounds i8, ptr %0, i64 32
  %6 = load i32, ptr %5, align 8
  %7 = icmp slt i32 %6, %1
  %or.cond = select i1 %4, i1 true, i1 %7
  br i1 %or.cond, label %8, label %9

8:                                                ; preds = %3
  tail call void (ptr, ptr, ...) @_ZN14GenerateOopMap12report_errorEPKcz(ptr noundef nonnull align 8 dereferenceable(176) %0, ptr noundef nonnull @.str.78)
  br label %14

9:                                                ; preds = %3
  %10 = getelementptr inbounds i8, ptr %0, i64 72
  %11 = load ptr, ptr %10, align 8
  %12 = zext nneg i32 %1 to i64
  %13 = getelementptr inbounds %class.CellTypeState, ptr %11, i64 %12
  store i32 %2, ptr %13, align 4
  br label %14

14:                                               ; preds = %9, %8
  ret void
}